target datalayout = "e-m:e-p270:32:32-p271:32:32-p272:64:64-i64:64-i128:128-f80:128-n8:16:32:64-S128"
target triple = "x86_64-pc-linux-gnu"

%struct.dt_pthread_mutex_t = type { %union.pthread_mutex_t }
%union.pthread_mutex_t = type { %struct.__pthread_mutex_s }
%struct.__pthread_mutex_s = type { i32, i32, i32, i32, i32, i16, i16, %struct.__pthread_internal_list }
%struct.__pthread_internal_list = type { ptr, ptr }
%struct.dt_iop_order_iccprofile_info_t = type { i32, [512 x i8], i32, [56 x i8], [4 x [4 x float]], [4 x [4 x float]], i32, [3 x ptr], [3 x ptr], [8 x i8], [3 x [3 x float]], [12 x i8], [3 x [3 x float]], i32, float, [36 x i8], [4 x [4 x float]], [4 x [4 x float]], [3 x [2 x float]], [2 x float], [32 x i8] }
%struct.dt_develop_t = type { i32, i32, i32, ptr, double, double, i32, i32, i32, i32, i32, double, i32, i32, i32, ptr, ptr, [8 x i8], %struct.dt_image_t, i32, i32, %struct.dt_pthread_mutex_t, i32, ptr, i32, ptr, i32, ptr, ptr, i32, ptr, ptr, ptr, ptr, i32, i32, ptr, ptr, ptr, ptr, i32, i32, i32, float, float, ptr, i32, %struct.anon.5, %struct.dt_dev_chroma_t, %struct.anon.8, %struct.anon.9, %struct.anon.10, %struct.anon.11, %struct.anon.12, %struct.anon.13, ptr, ptr, %struct.dt_dev_viewport_t, %struct.dt_dev_viewport_t, i32, i32, i32, ptr, [8 x i8] }
%struct.dt_image_t = type { i32, i32, float, float, float, float, float, float, float, [64 x i8], [64 x i8], [128 x i8], [64 x i8], [64 x i8], [64 x i8], [64 x i8], i64, i32, %union.dt_image_correction_data_t, [64 x i8], [64 x i8], [64 x i8], [128 x i8], i32, [256 x i8], i32, i32, i32, i32, i32, i32, i32, i32, i32, i32, float, i32, i32, i32, i32, i32, i32, i64, i64, i64, i64, i32, [12 x i8], %struct.dt_iop_buffer_dsc_t, [9 x float], ptr, i32, i32, %struct.dt_image_raw_parameters_t, %struct.dt_image_geoloc_t, %struct._color_harmony_t, i16, [4 x i16], i32, i32, float, float, [4 x float], [4 x [3 x float]], [4 x float], ptr, ptr, i32, i32, [8 x i8] }
%union.dt_image_correction_data_t = type { %struct.anon.0 }
%struct.anon.0 = type { i32, float, [11 x float], [11 x float], [11 x float], [11 x float], [11 x float] }
%struct.dt_iop_buffer_dsc_t = type { i32, i32, i32, [6 x [6 x i8]], %struct.anon.3, [12 x i8], %struct.anon.4, [4 x float], i32, [12 x i8] }
%struct.anon.3 = type { i16, i16 }
%struct.anon.4 = type { i32, [12 x i8], [4 x float] }
%struct.dt_image_raw_parameters_t = type { i32 }
%struct.dt_image_geoloc_t = type { double, double, double }
%struct._color_harmony_t = type { i32, i32, i32 }
%struct.anon.5 = type { %struct.dt_dev_proxy_exposure_t, ptr, %struct.anon.6, %struct.anon.7 }
%struct.dt_dev_proxy_exposure_t = type { ptr, ptr, ptr, ptr }
%struct.anon.6 = type { ptr, ptr, ptr, ptr, ptr, ptr, ptr, ptr, ptr }
%struct.anon.7 = type { ptr, ptr, ptr, ptr, ptr }
%struct.dt_dev_chroma_t = type { ptr, ptr, [4 x double], [4 x double], [4 x double], i32 }
%struct.anon.8 = type { ptr, ptr, ptr }
%struct.anon.9 = type { ptr, ptr, i32, i32, float, float, i32 }
%struct.anon.10 = type { ptr, ptr, i32, i32, i32, float }
%struct.anon.11 = type { ptr }
%struct.anon.12 = type { ptr, i32 }
%struct.anon.13 = type { ptr, ptr, ptr }
%struct.dt_dev_viewport_t = type { ptr, i32, i32, i32, i32, i32, double, double, double, i32, i32, i32, float, float, float, ptr }
%struct._GList = type { ptr, ptr, ptr }

; Function Attrs: nounwind uwtable
define ptr @dt_ioppr_get_profile_info_from_list(ptr noundef %0, i32 noundef %1, ptr noundef %2) #0 {
  %4 = alloca ptr, align 8
  %5 = alloca i32, align 4
  %6 = alloca ptr, align 8
  %7 = alloca ptr, align 8
  %8 = alloca ptr, align 8
  %9 = alloca i32, align 4
  %10 = alloca ptr, align 8
  store ptr %0, ptr %4, align 8, !tbaa !26
  store i32 %1, ptr %5, align 4, !tbaa !11
  store ptr %2, ptr %6, align 8, !tbaa !28
  call void @llvm.lifetime.start.p0(i64 8, ptr %7) #10
  store ptr null, ptr %7, align 8, !tbaa !6
  call void @llvm.lifetime.start.p0(i64 8, ptr %8) #10
  %11 = load ptr, ptr %4, align 8, !tbaa !26
  %12 = getelementptr inbounds nuw %struct.dt_develop_t, ptr %11, i32 0, i32 31
  %13 = load ptr, ptr %12, align 8, !tbaa !30
  store ptr %13, ptr %8, align 8, !tbaa !63
  br label %14

14:                                               ; preds = %48, %3
  %15 = load ptr, ptr %8, align 8, !tbaa !63
  %16 = icmp ne ptr %15, null
  br i1 %16, label %18, label %17

17:                                               ; preds = %14
  store i32 2, ptr %9, align 4
  br label %50

18:                                               ; preds = %14
  call void @llvm.lifetime.start.p0(i64 8, ptr %10) #10
  %19 = load ptr, ptr %8, align 8, !tbaa !63
  %20 = getelementptr inbounds nuw %struct._GList, ptr %19, i32 0, i32 0
  %21 = load ptr, ptr %20, align 8, !tbaa !64
  store ptr %21, ptr %10, align 8, !tbaa !6
  %22 = load ptr, ptr %10, align 8, !tbaa !6
  %23 = getelementptr inbounds nuw %struct.dt_iop_order_iccprofile_info_t, ptr %22, i32 0, i32 0
  %24 = load i32, ptr %23, align 64, !tbaa !13
  %25 = load i32, ptr %5, align 4, !tbaa !11
  %26 = icmp eq i32 %24, %25
  br i1 %26, label %27, label %36

27:                                               ; preds = %18
  %28 = load ptr, ptr %10, align 8, !tbaa !6
  %29 = getelementptr inbounds nuw %struct.dt_iop_order_iccprofile_info_t, ptr %28, i32 0, i32 1
  %30 = getelementptr inbounds [512 x i8], ptr %29, i64 0, i64 0
  %31 = load ptr, ptr %6, align 8, !tbaa !28
  %32 = call i32 @strcmp(ptr noundef %30, ptr noundef %31) #11
  %33 = icmp eq i32 %32, 0
  br i1 %33, label %34, label %36

34:                                               ; preds = %27
  %35 = load ptr, ptr %10, align 8, !tbaa !6
  store ptr %35, ptr %7, align 8, !tbaa !6
  store i32 2, ptr %9, align 4
  br label %37

36:                                               ; preds = %27, %18
  store i32 0, ptr %9, align 4
  br label %37

37:                                               ; preds = %36, %34
  call void @llvm.lifetime.end.p0(i64 8, ptr %10) #10
  %38 = load i32, ptr %9, align 4
  switch i32 %38, label %50 [
    i32 0, label %39
  ]

39:                                               ; preds = %37
  br label %40

40:                                               ; preds = %39
  %41 = load ptr, ptr %8, align 8, !tbaa !63
  %42 = icmp ne ptr %41, null
  br i1 %42, label %43, label %47

43:                                               ; preds = %40
  %44 = load ptr, ptr %8, align 8, !tbaa !63
  %45 = getelementptr inbounds nuw %struct._GList, ptr %44, i32 0, i32 1
  %46 = load ptr, ptr %45, align 8, !tbaa !66
  br label %48

47:                                               ; preds = %40
  br label %48

48:                                               ; preds = %47, %43
  %49 = phi ptr [ %46, %43 ], [ null, %47 ]
  store ptr %49, ptr %8, align 8, !tbaa !63
  br label %14

50:                                               ; preds = %37, %17
  call void @llvm.lifetime.end.p0(i64 8, ptr %8) #10
  br label %51

51:                                               ; preds = %50
  %52 = load ptr, ptr %7, align 8, !tbaa !6
  store i32 1, ptr %9, align 4
  call void @llvm.lifetime.end.p0(i64 8, ptr %7) #10
  ret ptr %52
}