; Function Attrs: nofree nounwind memory(read, inaccessiblemem: none) uwtable
define noundef ptr @dt_ioppr_get_profile_info_from_list(ptr noundef readonly captures(none) %0, i32 noundef %1, ptr noundef readonly captures(none) %2) local_unnamed_addr #3 {
  %4 = getelementptr inbounds nuw i8, ptr %0, i64 2088
  %.01216 = load ptr, ptr %4, align 8, !tbaa !21
  %.not17 = icmp eq ptr %.01216, null
  br i1 %.not17, label %._crit_edge, label %.lr.ph

.lr.ph:                                           ; preds = %3, %12
  %.01218 = phi ptr [ %.012, %12 ], [ %.01216, %3 ]
  %5 = load ptr, ptr %.01218, align 8, !tbaa !23
  %6 = load i32, ptr %5, align 64, !tbaa !6
  %7 = icmp eq i32 %6, %1
  br i1 %7, label %8, label %12

8:                                                ; preds = %.lr.ph
  %9 = getelementptr inbounds nuw i8, ptr %5, i64 4
  %10 = tail call i32 @strcmp(ptr noundef nonnull dereferenceable(1) %9, ptr noundef nonnull dereferenceable(1) %2) #18
  %11 = icmp eq i32 %10, 0
  br i1 %11, label %._crit_edge, label %12

12:                                               ; preds = %.lr.ph, %8
  %13 = getelementptr inbounds nuw i8, ptr %.01218, i64 8
  %.012 = load ptr, ptr %13, align 8, !tbaa !21
  %.not = icmp eq ptr %.012, null
  br i1 %.not, label %._crit_edge, label %.lr.ph

._crit_edge:                                      ; preds = %12, %8, %3
  %.1 = phi ptr [ null, %3 ], [ %5, %8 ], [ null, %12 ]
  ret ptr %.1
}